target datalayout = "e-m:e-p270:32:32-p271:32:32-p272:64:64-i64:64-i128:128-f80:128-n8:16:32:64-S128"
target triple = "x86_64-pc-linux-gnu"

%struct._wmem_tree_t = type { ptr, ptr, ptr, i32, i32, ptr }
%struct._wmem_tree_node_t = type { ptr, ptr, ptr, ptr, ptr, i32, i8, i8 }

; Function Attrs: null_pointer_is_valid sspstrong uwtable
define internal ptr @create_node(ptr noundef %0, ptr noundef %1, ptr noundef %2, ptr noundef %3, i32 noundef %4, i1 noundef zeroext %5) #0 {
  %7 = alloca ptr, align 8
  %8 = alloca ptr, align 8
  %9 = alloca ptr, align 8
  %10 = alloca ptr, align 8
  %11 = alloca i32, align 4
  %12 = alloca i8, align 1
  %13 = alloca ptr, align 8
  store ptr %0, ptr %7, align 8
  store ptr %1, ptr %8, align 8
  store ptr %2, ptr %9, align 8
  store ptr %3, ptr %10, align 8
  store i32 %4, ptr %11, align 4
  %14 = zext i1 %5 to i8
  store i8 %14, ptr %12, align 1
  call void @llvm.lifetime.start.p0(i64 8, ptr %13) #6
  %15 = load ptr, ptr %7, align 8
  %16 = call noalias ptr @wmem_alloc(ptr noundef %15, i64 noundef 48) #7
  store ptr %16, ptr %13, align 8
  %17 = load ptr, ptr %13, align 8
  %18 = getelementptr inbounds nuw %struct._wmem_tree_node_t, ptr %17, i32 0, i32 1
  store ptr null, ptr %18, align 8
  %19 = load ptr, ptr %13, align 8
  %20 = getelementptr inbounds nuw %struct._wmem_tree_node_t, ptr %19, i32 0, i32 2
  store ptr null, ptr %20, align 8
  %21 = load ptr, ptr %8, align 8
  %22 = load ptr, ptr %13, align 8
  %23 = getelementptr inbounds nuw %struct._wmem_tree_node_t, ptr %22, i32 0, i32 0
  store ptr %21, ptr %23, align 8
  %24 = load ptr, ptr %9, align 8
  %25 = load ptr, ptr %13, align 8
  %26 = getelementptr inbounds nuw %struct._wmem_tree_node_t, ptr %25, i32 0, i32 3
  store ptr %24, ptr %26, align 8
  %27 = load ptr, ptr %10, align 8
  %28 = load ptr, ptr %13, align 8
  %29 = getelementptr inbounds nuw %struct._wmem_tree_node_t, ptr %28, i32 0, i32 4
  store ptr %27, ptr %29, align 8
  %30 = load i32, ptr %11, align 4
  %31 = load ptr, ptr %13, align 8
  %32 = getelementptr inbounds nuw %struct._wmem_tree_node_t, ptr %31, i32 0, i32 5
  store i32 %30, ptr %32, align 8
  %33 = load i8, ptr %12, align 1, !range !6, !noundef !7
  %34 = trunc i8 %33 to i1
  %35 = load ptr, ptr %13, align 8
  %36 = getelementptr inbounds nuw %struct._wmem_tree_node_t, ptr %35, i32 0, i32 6
  %37 = zext i1 %34 to i8
  store i8 %37, ptr %36, align 4
  %38 = load ptr, ptr %13, align 8
  %39 = getelementptr inbounds nuw %struct._wmem_tree_node_t, ptr %38, i32 0, i32 7
  store i8 0, ptr %39, align 1
  %40 = load ptr, ptr %13, align 8
  call void @llvm.lifetime.end.p0(i64 8, ptr %13) #6
  ret ptr %40
}

; Function Attrs: null_pointer_is_valid sspstrong uwtable
define internal ptr @lookup_or_insert32_node(ptr noundef %0, i32 noundef %1, ptr noundef %2, ptr noundef %3, i1 noundef zeroext %4, i1 noundef zeroext %5) #0 {
  %7 = alloca ptr, align 8
  %8 = alloca ptr, align 8
  %9 = alloca i32, align 4
  %10 = alloca ptr, align 8
  %11 = alloca ptr, align 8
  %12 = alloca i8, align 1
  %13 = alloca i8, align 1
  %14 = alloca ptr, align 8
  %15 = alloca ptr, align 8
  %16 = alloca i32, align 4
  store ptr %0, ptr %8, align 8
  store i32 %1, ptr %9, align 4
  store ptr %2, ptr %10, align 8
  store ptr %3, ptr %11, align 8
  %17 = zext i1 %4 to i8
  store i8 %17, ptr %12, align 1
  %18 = zext i1 %5 to i8
  store i8 %18, ptr %13, align 1
  call void @llvm.lifetime.start.p0(i64 8, ptr %14) #6
  %19 = load ptr, ptr %8, align 8
  %20 = getelementptr inbounds nuw %struct._wmem_tree_t, ptr %19, i32 0, i32 2
  %21 = load ptr, ptr %20, align 8
  store ptr %21, ptr %14, align 8
  call void @llvm.lifetime.start.p0(i64 8, ptr %15) #6
  store ptr null, ptr %15, align 8
  %22 = load ptr, ptr %14, align 8
  %23 = icmp ne ptr %22, null
  br i1 %23, label %48, label %24

24:                                               ; preds = %6
  %25 = load ptr, ptr %8, align 8
  %26 = getelementptr inbounds nuw %struct._wmem_tree_t, ptr %25, i32 0, i32 1
  %27 = load ptr, ptr %26, align 8
  %28 = load i32, ptr %9, align 4
  %29 = zext i32 %28 to i64
  %30 = inttoptr i64 %29 to ptr
  %31 = load ptr, ptr %10, align 8
  %32 = icmp ne ptr %31, null
  br i1 %32, label %33, label %37

33:                                               ; preds = %24
  %34 = load ptr, ptr %10, align 8
  %35 = load ptr, ptr %11, align 8
  %36 = call ptr %34(ptr noundef %35)
  br label %39

37:                                               ; preds = %24
  %38 = load ptr, ptr %11, align 8
  br label %39

39:                                               ; preds = %37, %33
  %40 = phi ptr [ %36, %33 ], [ %38, %37 ]
  %41 = load i8, ptr %12, align 1, !range !6, !noundef !7
  %42 = trunc i8 %41 to i1
  %43 = call ptr @create_node(ptr noundef %27, ptr noundef null, ptr noundef %30, ptr noundef %40, i32 noundef 1, i1 noundef zeroext %42)
  store ptr %43, ptr %15, align 8
  %44 = load ptr, ptr %15, align 8
  %45 = load ptr, ptr %8, align 8
  %46 = getelementptr inbounds nuw %struct._wmem_tree_t, ptr %45, i32 0, i32 2
  store ptr %44, ptr %46, align 8
  %47 = load ptr, ptr %15, align 8
  store ptr %47, ptr %7, align 8
  store i32 1, ptr %16, align 4
  br label %170

48:                                               ; preds = %6
  br label %49

49:                                               ; preds = %165, %48
  %50 = load ptr, ptr %15, align 8
  %51 = icmp ne ptr %50, null
  %52 = xor i1 %51, true
  br i1 %52, label %53, label %166

53:                                               ; preds = %49
  %54 = load i32, ptr %9, align 4
  %55 = load ptr, ptr %14, align 8
  %56 = getelementptr inbounds nuw %struct._wmem_tree_node_t, ptr %55, i32 0, i32 3
  %57 = load ptr, ptr %56, align 8
  %58 = ptrtoint ptr %57 to i64
  %59 = trunc i64 %58 to i32
  %60 = icmp eq i32 %54, %59
  br i1 %60, label %61, label %79

61:                                               ; preds = %53
  %62 = load i8, ptr %13, align 1, !range !6, !noundef !7
  %63 = trunc i8 %62 to i1
  br i1 %63, label %64, label %77

64:                                               ; preds = %61
  %65 = load ptr, ptr %10, align 8
  %66 = icmp ne ptr %65, null
  br i1 %66, label %67, label %71

67:                                               ; preds = %64
  %68 = load ptr, ptr %10, align 8
  %69 = load ptr, ptr %11, align 8
  %70 = call ptr %68(ptr noundef %69)
  br label %73

71:                                               ; preds = %64
  %72 = load ptr, ptr %11, align 8
  br label %73

73:                                               ; preds = %71, %67
  %74 = phi ptr [ %70, %67 ], [ %72, %71 ]
  %75 = load ptr, ptr %14, align 8
  %76 = getelementptr inbounds nuw %struct._wmem_tree_node_t, ptr %75, i32 0, i32 4
  store ptr %74, ptr %76, align 8
  br label %77

77:                                               ; preds = %73, %61
  %78 = load ptr, ptr %14, align 8
  store ptr %78, ptr %7, align 8
  store i32 1, ptr %16, align 4
  br label %170

79:                                               ; preds = %53
  %80 = load i32, ptr %9, align 4
  %81 = load ptr, ptr %14, align 8
  %82 = getelementptr inbounds nuw %struct._wmem_tree_node_t, ptr %81, i32 0, i32 3
  %83 = load ptr, ptr %82, align 8
  %84 = ptrtoint ptr %83 to i64
  %85 = trunc i64 %84 to i32
  %86 = icmp ult i32 %80, %85
  br i1 %86, label %87, label %121

87:                                               ; preds = %79
  %88 = load ptr, ptr %14, align 8
  %89 = getelementptr inbounds nuw %struct._wmem_tree_node_t, ptr %88, i32 0, i32 1
  %90 = load ptr, ptr %89, align 8
  %91 = icmp ne ptr %90, null
  br i1 %91, label %92, label %96

92:                                               ; preds = %87
  %93 = load ptr, ptr %14, align 8
  %94 = getelementptr inbounds nuw %struct._wmem_tree_node_t, ptr %93, i32 0, i32 1
  %95 = load ptr, ptr %94, align 8
  store ptr %95, ptr %14, align 8
  br label %120

96:                                               ; preds = %87
  %97 = load ptr, ptr %8, align 8
  %98 = getelementptr inbounds nuw %struct._wmem_tree_t, ptr %97, i32 0, i32 1
  %99 = load ptr, ptr %98, align 8
  %100 = load ptr, ptr %14, align 8
  %101 = load i32, ptr %9, align 4
  %102 = zext i32 %101 to i64
  %103 = inttoptr i64 %102 to ptr
  %104 = load ptr, ptr %10, align 8
  %105 = icmp ne ptr %104, null
  br i1 %105, label %106, label %110

106:                                              ; preds = %96
  %107 = load ptr, ptr %10, align 8
  %108 = load ptr, ptr %11, align 8
  %109 = call ptr %107(ptr noundef %108)
  br label %112

110:                                              ; preds = %96
  %111 = load ptr, ptr %11, align 8
  br label %112

112:                                              ; preds = %110, %106
  %113 = phi ptr [ %109, %106 ], [ %111, %110 ]
  %114 = load i8, ptr %12, align 1, !range !6, !noundef !7
  %115 = trunc i8 %114 to i1
  %116 = call ptr @create_node(ptr noundef %99, ptr noundef %100, ptr noundef %103, ptr noundef %113, i32 noundef 0, i1 noundef zeroext %115)
  store ptr %116, ptr %15, align 8
  %117 = load ptr, ptr %15, align 8
  %118 = load ptr, ptr %14, align 8
  %119 = getelementptr inbounds nuw %struct._wmem_tree_node_t, ptr %118, i32 0, i32 1
  store ptr %117, ptr %119, align 8
  br label %120

120:                                              ; preds = %112, %92
  br label %164

121:                                              ; preds = %79
  %122 = load i32, ptr %9, align 4
  %123 = load ptr, ptr %14, align 8
  %124 = getelementptr inbounds nuw %struct._wmem_tree_node_t, ptr %123, i32 0, i32 3
  %125 = load ptr, ptr %124, align 8
  %126 = ptrtoint ptr %125 to i64
  %127 = trunc i64 %126 to i32
  %128 = icmp ugt i32 %122, %127
  br i1 %128, label %129, label %163

129:                                              ; preds = %121
  %130 = load ptr, ptr %14, align 8
  %131 = getelementptr inbounds nuw %struct._wmem_tree_node_t, ptr %130, i32 0, i32 2
  %132 = load ptr, ptr %131, align 8
  %133 = icmp ne ptr %132, null
  br i1 %133, label %134, label %138

134:                                              ; preds = %129
  %135 = load ptr, ptr %14, align 8
  %136 = getelementptr inbounds nuw %struct._wmem_tree_node_t, ptr %135, i32 0, i32 2
  %137 = load ptr, ptr %136, align 8
  store ptr %137, ptr %14, align 8
  br label %162

138:                                              ; preds = %129
  %139 = load ptr, ptr %8, align 8
  %140 = getelementptr inbounds nuw %struct._wmem_tree_t, ptr %139, i32 0, i32 1
  %141 = load ptr, ptr %140, align 8
  %142 = load ptr, ptr %14, align 8
  %143 = load i32, ptr %9, align 4
  %144 = zext i32 %143 to i64
  %145 = inttoptr i64 %144 to ptr
  %146 = load ptr, ptr %10, align 8
  %147 = icmp ne ptr %146, null
  br i1 %147, label %148, label %152

148:                                              ; preds = %138
  %149 = load ptr, ptr %10, align 8
  %150 = load ptr, ptr %11, align 8
  %151 = call ptr %149(ptr noundef %150)
  br label %154

152:                                              ; preds = %138
  %153 = load ptr, ptr %11, align 8
  br label %154

154:                                              ; preds = %152, %148
  %155 = phi ptr [ %151, %148 ], [ %153, %152 ]
  %156 = load i8, ptr %12, align 1, !range !6, !noundef !7
  %157 = trunc i8 %156 to i1
  %158 = call ptr @create_node(ptr noundef %141, ptr noundef %142, ptr noundef %145, ptr noundef %155, i32 noundef 0, i1 noundef zeroext %157)
  store ptr %158, ptr %15, align 8
  %159 = load ptr, ptr %15, align 8
  %160 = load ptr, ptr %14, align 8
  %161 = getelementptr inbounds nuw %struct._wmem_tree_node_t, ptr %160, i32 0, i32 2
  store ptr %159, ptr %161, align 8
  br label %162

162:                                              ; preds = %154, %134
  br label %163

163:                                              ; preds = %162, %121
  br label %164

164:                                              ; preds = %163, %120
  br label %165

165:                                              ; preds = %164
  br label %49, !llvm.loop !22

166:                                              ; preds = %49
  %167 = load ptr, ptr %8, align 8
  %168 = load ptr, ptr %15, align 8
  call void @rb_insert_case1(ptr noundef %167, ptr noundef %168)
  %169 = load ptr, ptr %15, align 8
  store ptr %169, ptr %7, align 8
  store i32 1, ptr %16, align 4
  br label %170

170:                                              ; preds = %166, %77, %39
  call void @llvm.lifetime.end.p0(i64 8, ptr %15) #6
  call void @llvm.lifetime.end.p0(i64 8, ptr %14) #6
  %171 = load ptr, ptr %7, align 8
  ret ptr %171
}

; Function Attrs: null_pointer_is_valid sspstrong uwtable
define internal ptr @lookup_or_insert32(ptr noundef %0, i32 noundef %1, ptr noundef %2, ptr noundef %3, i1 noundef zeroext %4, i1 noundef zeroext %5) #0 {
  %7 = alloca ptr, align 8
  %8 = alloca i32, align 4
  %9 = alloca ptr, align 8
  %10 = alloca ptr, align 8
  %11 = alloca i8, align 1
  %12 = alloca i8, align 1
  %13 = alloca ptr, align 8
  store ptr %0, ptr %7, align 8
  store i32 %1, ptr %8, align 4
  store ptr %2, ptr %9, align 8
  store ptr %3, ptr %10, align 8
  %14 = zext i1 %4 to i8
  store i8 %14, ptr %11, align 1
  %15 = zext i1 %5 to i8
  store i8 %15, ptr %12, align 1
  call void @llvm.lifetime.start.p0(i64 8, ptr %13) #6
  %16 = load ptr, ptr %7, align 8
  %17 = load i32, ptr %8, align 4
  %18 = load ptr, ptr %9, align 8
  %19 = load ptr, ptr %10, align 8
  %20 = load i8, ptr %11, align 1, !range !6, !noundef !7
  %21 = trunc i8 %20 to i1
  %22 = load i8, ptr %12, align 1, !range !6, !noundef !7
  %23 = trunc i8 %22 to i1
  %24 = call ptr @lookup_or_insert32_node(ptr noundef %16, i32 noundef %17, ptr noundef %18, ptr noundef %19, i1 noundef zeroext %21, i1 noundef zeroext %23)
  store ptr %24, ptr %13, align 8
  %25 = load ptr, ptr %13, align 8
  %26 = getelementptr inbounds nuw %struct._wmem_tree_node_t, ptr %25, i32 0, i32 4
  %27 = load ptr, ptr %26, align 8
  call void @llvm.lifetime.end.p0(i64 8, ptr %13) #6
  ret ptr %27
}