; Function Attrs: null_pointer_is_valid sspstrong uwtable
define internal fastcc void @lookup_or_insert32(ptr noundef captures(none) %0, i32 noundef %1, ptr noundef readonly captures(address_is_null) %2, ptr noundef %3, i1 noundef zeroext %4, i1 noundef zeroext %5) unnamed_addr #0 {
  %7 = getelementptr inbounds nuw i8, ptr %0, i64 16
  %8 = load ptr, ptr %7, align 8
  %.not.i = icmp eq ptr %8, null
  %9 = getelementptr inbounds nuw i8, ptr %0, i64 8
  br i1 %.not.i, label %47, label %.preheader.i

.preheader.i:                                     ; preds = %6
  %10 = zext i32 %1 to i64
  %11 = inttoptr i64 %10 to ptr
  %.not66.i = icmp eq ptr %2, null
  %12 = zext i1 %4 to i8
  br i1 %.not66.i, label %.preheader.split.us.split.us.i, label %.preheader.split.split.i

.preheader.split.us.split.us.i:                   ; preds = %.preheader.i, %46
  %.05372.us.us.i = phi ptr [ %.154.us.us.i, %46 ], [ %8, %.preheader.i ]
  %13 = getelementptr inbounds nuw i8, ptr %.05372.us.us.i, i64 24
  %14 = load ptr, ptr %13, align 8
  %15 = ptrtoint ptr %14 to i64
  %16 = trunc i64 %15 to i32
  %17 = icmp eq i32 %1, %16
  br i1 %17, label %.split.us.i, label %18

18:                                               ; preds = %.preheader.split.us.split.us.i
  %19 = icmp ult i32 %1, %16
  br i1 %19, label %34, label %20

20:                                               ; preds = %18
  %21 = icmp ugt i32 %1, %16
  br i1 %21, label %22, label %46

22:                                               ; preds = %20
  %23 = getelementptr inbounds nuw i8, ptr %.05372.us.us.i, i64 16
  %24 = load ptr, ptr %23, align 8
  %.not65.us.us.i = icmp eq ptr %24, null
  br i1 %.not65.us.us.i, label %25, label %46

25:                                               ; preds = %22
  %26 = load ptr, ptr %9, align 8
  %27 = tail call noalias dereferenceable_or_null(48) ptr @wmem_alloc(ptr noundef %26, i64 noundef 48) #10
  %28 = getelementptr inbounds nuw i8, ptr %27, i64 8
  tail call void @llvm.memset.p0.i64(ptr noundef nonnull align 8 dereferenceable(16) %28, i8 0, i64 16, i1 false)
  store ptr %.05372.us.us.i, ptr %27, align 8
  %29 = getelementptr inbounds nuw i8, ptr %27, i64 24
  store ptr %11, ptr %29, align 8
  %30 = getelementptr inbounds nuw i8, ptr %27, i64 32
  store ptr %3, ptr %30, align 8
  %31 = getelementptr inbounds nuw i8, ptr %27, i64 40
  store i32 0, ptr %31, align 8
  %32 = getelementptr inbounds nuw i8, ptr %27, i64 44
  store i8 %12, ptr %32, align 4
  %33 = getelementptr inbounds nuw i8, ptr %27, i64 45
  store i8 0, ptr %33, align 1
  store ptr %27, ptr %23, align 8
  br label %46

34:                                               ; preds = %18
  %35 = getelementptr inbounds nuw i8, ptr %.05372.us.us.i, i64 8
  %36 = load ptr, ptr %35, align 8
  %.not67.us.us.i = icmp eq ptr %36, null
  br i1 %.not67.us.us.i, label %37, label %46

37:                                               ; preds = %34
  %38 = load ptr, ptr %9, align 8
  %39 = tail call noalias dereferenceable_or_null(48) ptr @wmem_alloc(ptr noundef %38, i64 noundef 48) #10
  %40 = getelementptr inbounds nuw i8, ptr %39, i64 8
  tail call void @llvm.memset.p0.i64(ptr noundef nonnull align 8 dereferenceable(16) %40, i8 0, i64 16, i1 false)
  store ptr %.05372.us.us.i, ptr %39, align 8
  %41 = getelementptr inbounds nuw i8, ptr %39, i64 24
  store ptr %11, ptr %41, align 8
  %42 = getelementptr inbounds nuw i8, ptr %39, i64 32
  store ptr %3, ptr %42, align 8
  %43 = getelementptr inbounds nuw i8, ptr %39, i64 40
  store i32 0, ptr %43, align 8
  %44 = getelementptr inbounds nuw i8, ptr %39, i64 44
  store i8 %12, ptr %44, align 4
  %45 = getelementptr inbounds nuw i8, ptr %39, i64 45
  store i8 0, ptr %45, align 1
  store ptr %39, ptr %35, align 8
  br label %46

46:                                               ; preds = %37, %34, %25, %22, %20
  %.154.us.us.i = phi ptr [ %.05372.us.us.i, %37 ], [ %.05372.us.us.i, %25 ], [ %.05372.us.us.i, %20 ], [ %36, %34 ], [ %24, %22 ]
  %.1.us.us.i = phi ptr [ %39, %37 ], [ %27, %25 ], [ null, %20 ], [ null, %34 ], [ null, %22 ]
  %.not64.us.us.i = icmp eq ptr %.1.us.us.i, null
  br i1 %.not64.us.us.i, label %.preheader.split.us.split.us.i, label %.split74.us.i, !llvm.loop !10

47:                                               ; preds = %6
  %48 = load ptr, ptr %9, align 8
  %49 = zext i32 %1 to i64
  %50 = inttoptr i64 %49 to ptr
  %.not63.i = icmp eq ptr %2, null
  br i1 %.not63.i, label %53, label %51

51:                                               ; preds = %47
  %52 = tail call ptr %2(ptr noundef %3), !callees !11
  br label %53

53:                                               ; preds = %51, %47
  %54 = phi ptr [ %52, %51 ], [ %3, %47 ]
  %55 = zext i1 %4 to i8
  %56 = tail call noalias dereferenceable_or_null(48) ptr @wmem_alloc(ptr noundef %48, i64 noundef 48) #10
  %57 = getelementptr inbounds nuw i8, ptr %56, i64 24
  tail call void @llvm.memset.p0.i64(ptr noundef align 8 dereferenceable(24) %56, i8 0, i64 24, i1 false)
  store ptr %50, ptr %57, align 8
  %58 = getelementptr inbounds nuw i8, ptr %56, i64 32
  store ptr %54, ptr %58, align 8
  %59 = getelementptr inbounds nuw i8, ptr %56, i64 40
  store i32 1, ptr %59, align 8
  %60 = getelementptr inbounds nuw i8, ptr %56, i64 44
  store i8 %55, ptr %60, align 4
  %61 = getelementptr inbounds nuw i8, ptr %56, i64 45
  store i8 0, ptr %61, align 1
  store ptr %56, ptr %7, align 8
  br label %lookup_or_insert32_node.exit

.preheader.split.split.i:                         ; preds = %.preheader.i, %103
  %.05372.i = phi ptr [ %.154.i, %103 ], [ %8, %.preheader.i ]
  %62 = getelementptr inbounds nuw i8, ptr %.05372.i, i64 24
  %63 = load ptr, ptr %62, align 8
  %64 = ptrtoint ptr %63 to i64
  %65 = trunc i64 %64 to i32
  %66 = icmp eq i32 %1, %65
  br i1 %66, label %.split.us.i, label %73

.split.us.i:                                      ; preds = %.preheader.split.split.i, %.preheader.split.us.split.us.i
  %.us-phi.i = phi ptr [ %.05372.us.us.i, %.preheader.split.us.split.us.i ], [ %.05372.i, %.preheader.split.split.i ]
  br i1 %5, label %67, label %lookup_or_insert32_node.exit

67:                                               ; preds = %.split.us.i
  br i1 %.not66.i, label %70, label %68

68:                                               ; preds = %67
  %69 = tail call ptr %2(ptr noundef %3), !callees !11
  br label %70

70:                                               ; preds = %68, %67
  %71 = phi ptr [ %69, %68 ], [ %3, %67 ]
  %72 = getelementptr inbounds nuw i8, ptr %.us-phi.i, i64 32
  store ptr %71, ptr %72, align 8
  br label %lookup_or_insert32_node.exit

73:                                               ; preds = %.preheader.split.split.i
  %74 = icmp ult i32 %1, %65
  br i1 %74, label %75, label %88

75:                                               ; preds = %73
  %76 = getelementptr inbounds nuw i8, ptr %.05372.i, i64 8
  %77 = load ptr, ptr %76, align 8
  %.not67.i = icmp eq ptr %77, null
  br i1 %.not67.i, label %78, label %103

78:                                               ; preds = %75
  %79 = load ptr, ptr %9, align 8
  %80 = tail call ptr %2(ptr noundef %3), !callees !11
  %81 = tail call noalias dereferenceable_or_null(48) ptr @wmem_alloc(ptr noundef %79, i64 noundef 48) #10
  %82 = getelementptr inbounds nuw i8, ptr %81, i64 8
  tail call void @llvm.memset.p0.i64(ptr noundef nonnull align 8 dereferenceable(16) %82, i8 0, i64 16, i1 false)
  store ptr %.05372.i, ptr %81, align 8
  %83 = getelementptr inbounds nuw i8, ptr %81, i64 24
  store ptr %11, ptr %83, align 8
  %84 = getelementptr inbounds nuw i8, ptr %81, i64 32
  store ptr %80, ptr %84, align 8
  %85 = getelementptr inbounds nuw i8, ptr %81, i64 40
  store i32 0, ptr %85, align 8
  %86 = getelementptr inbounds nuw i8, ptr %81, i64 44
  store i8 %12, ptr %86, align 4
  %87 = getelementptr inbounds nuw i8, ptr %81, i64 45
  store i8 0, ptr %87, align 1
  store ptr %81, ptr %76, align 8
  br label %103

88:                                               ; preds = %73
  %89 = icmp ugt i32 %1, %65
  br i1 %89, label %90, label %103

90:                                               ; preds = %88
  %91 = getelementptr inbounds nuw i8, ptr %.05372.i, i64 16
  %92 = load ptr, ptr %91, align 8
  %.not65.i = icmp eq ptr %92, null
  br i1 %.not65.i, label %93, label %103

93:                                               ; preds = %90
  %94 = load ptr, ptr %9, align 8
  %95 = tail call ptr %2(ptr noundef %3), !callees !11
  %96 = tail call noalias dereferenceable_or_null(48) ptr @wmem_alloc(ptr noundef %94, i64 noundef 48) #10
  %97 = getelementptr inbounds nuw i8, ptr %96, i64 8
  tail call void @llvm.memset.p0.i64(ptr noundef nonnull align 8 dereferenceable(16) %97, i8 0, i64 16, i1 false)
  store ptr %.05372.i, ptr %96, align 8
  %98 = getelementptr inbounds nuw i8, ptr %96, i64 24
  store ptr %11, ptr %98, align 8
  %99 = getelementptr inbounds nuw i8, ptr %96, i64 32
  store ptr %95, ptr %99, align 8
  %100 = getelementptr inbounds nuw i8, ptr %96, i64 40
  store i32 0, ptr %100, align 8
  %101 = getelementptr inbounds nuw i8, ptr %96, i64 44
  store i8 %12, ptr %101, align 4
  %102 = getelementptr inbounds nuw i8, ptr %96, i64 45
  store i8 0, ptr %102, align 1
  store ptr %96, ptr %91, align 8
  br label %103

103:                                              ; preds = %93, %90, %88, %78, %75
  %.154.i = phi ptr [ %.05372.i, %78 ], [ %.05372.i, %93 ], [ %.05372.i, %88 ], [ %77, %75 ], [ %92, %90 ]
  %.1.i = phi ptr [ %81, %78 ], [ %96, %93 ], [ null, %88 ], [ null, %75 ], [ null, %90 ]
  %.not64.i = icmp eq ptr %.1.i, null
  br i1 %.not64.i, label %.preheader.split.split.i, label %.split74.us.i, !llvm.loop !10

.split74.us.i:                                    ; preds = %103, %46
  %.us-phi75.i = phi ptr [ %.1.us.us.i, %46 ], [ %.1.i, %103 ]
  tail call fastcc void @rb_insert_case1(ptr noundef %0, ptr noundef nonnull %.us-phi75.i)
  br label %lookup_or_insert32_node.exit

lookup_or_insert32_node.exit:                     ; preds = %53, %.split.us.i, %70, %.split74.us.i
  ret void
}